target datalayout = "e-m:e-p270:32:32-p271:32:32-p272:64:64-i64:64-i128:128-f80:128-n8:16:32:64-S128"
target triple = "x86_64-pc-linux-gnu"

%struct.LogicalRepWorker = type { i32, i64, i8, i16, ptr, i32, i32, i32, i32, i8, i64, i8, ptr, i32, i8, i64, i64, i64, i64, i64 }
%struct.ApplySubXactData = type { i32, i32, i32, ptr }

@MyLogicalRepWorker = external global ptr, align 8
@LogicalStreamingContext = internal global ptr null, align 8
@CurrentMemoryContext = external global ptr, align 8
@subxact_data = internal global { i32, i32, i32, [4 x i8], ptr } zeroinitializer, align 8
@.str.69 = private unnamed_addr constant [15 x i8] c"%u-%u.subxacts\00", align 1

; Function Attrs: inlinehint nounwind uwtable
define internal ptr @MemoryContextSwitchTo(ptr noundef %0) #3 {
  %2 = alloca ptr, align 8
  %3 = alloca ptr, align 8
  store ptr %0, ptr %2, align 8
  call void @llvm.lifetime.start.p0(i64 8, ptr %3) #12
  %4 = load ptr, ptr @CurrentMemoryContext, align 8
  store ptr %4, ptr %3, align 8
  %5 = load ptr, ptr %2, align 8
  store ptr %5, ptr @CurrentMemoryContext, align 8
  %6 = load ptr, ptr %3, align 8
  call void @llvm.lifetime.end.p0(i64 8, ptr %3) #12
  ret ptr %6
}

; Function Attrs: inlinehint nounwind uwtable
define internal void @subxact_filename(ptr noundef %0, i32 noundef %1, i32 noundef %2) #3 {
  %4 = alloca ptr, align 8
  %5 = alloca i32, align 4
  %6 = alloca i32, align 4
  store ptr %0, ptr %4, align 8
  store i32 %1, ptr %5, align 4
  store i32 %2, ptr %6, align 4
  %7 = load ptr, ptr %4, align 8
  %8 = load i32, ptr %5, align 4
  %9 = load i32, ptr %6, align 4
  %10 = call i32 (ptr, i64, ptr, ...) @pg_snprintf(ptr noundef %7, i64 noundef 1024, ptr noundef @.str.69, i32 noundef %8, i32 noundef %9)
  ret void
}

; Function Attrs: nounwind uwtable
define internal void @subxact_info_read(i32 noundef %0, i32 noundef %1) #0 {
  %3 = alloca i32, align 4
  %4 = alloca i32, align 4
  %5 = alloca [1024 x i8], align 16
  %6 = alloca i64, align 8
  %7 = alloca ptr, align 8
  %8 = alloca ptr, align 8
  %9 = alloca i32, align 4
  store i32 %0, ptr %3, align 4
  store i32 %1, ptr %4, align 4
  call void @llvm.lifetime.start.p0(i64 1024, ptr %5) #12
  call void @llvm.lifetime.start.p0(i64 8, ptr %6) #12
  call void @llvm.lifetime.start.p0(i64 8, ptr %7) #12
  call void @llvm.lifetime.start.p0(i64 8, ptr %8) #12
  %10 = getelementptr inbounds [1024 x i8], ptr %5, i64 0, i64 0
  %11 = load i32, ptr %3, align 4
  %12 = load i32, ptr %4, align 4
  call void @subxact_filename(ptr noundef %10, i32 noundef %11, i32 noundef %12)
  %13 = load ptr, ptr @MyLogicalRepWorker, align 8
  %14 = getelementptr inbounds nuw %struct.LogicalRepWorker, ptr %13, i32 0, i32 12
  %15 = load ptr, ptr %14, align 8
  %16 = getelementptr inbounds [1024 x i8], ptr %5, i64 0, i64 0
  %17 = call ptr @BufFileOpenFileSet(ptr noundef %15, ptr noundef %16, i32 noundef 0, i1 noundef zeroext true)
  store ptr %17, ptr %7, align 8
  %18 = load ptr, ptr %7, align 8
  %19 = icmp eq ptr %18, null
  br i1 %19, label %20, label %21

20:                                               ; preds = %2
  store i32 1, ptr %9, align 4
  br label %46

21:                                               ; preds = %2
  %22 = load ptr, ptr %7, align 8
  call void @BufFileReadExact(ptr noundef %22, ptr noundef @subxact_data, i64 noundef 4)
  %23 = load i32, ptr @subxact_data, align 8
  %24 = zext i32 %23 to i64
  %25 = mul i64 16, %24
  store i64 %25, ptr %6, align 8
  %26 = load i32, ptr @subxact_data, align 8
  %27 = zext i32 %26 to i64
  %28 = call i32 @my_log2(i64 noundef %27)
  %29 = shl i32 1, %28
  store i32 %29, ptr getelementptr inbounds nuw (%struct.ApplySubXactData, ptr @subxact_data, i32 0, i32 1), align 4
  %30 = load ptr, ptr @LogicalStreamingContext, align 8
  %31 = call ptr @MemoryContextSwitchTo(ptr noundef %30)
  store ptr %31, ptr %8, align 8
  %32 = load i32, ptr getelementptr inbounds nuw (%struct.ApplySubXactData, ptr @subxact_data, i32 0, i32 1), align 4
  %33 = zext i32 %32 to i64
  %34 = mul i64 %33, 16
  %35 = call ptr @palloc(i64 noundef %34)
  store ptr %35, ptr getelementptr inbounds nuw (%struct.ApplySubXactData, ptr @subxact_data, i32 0, i32 3), align 8
  %36 = load ptr, ptr %8, align 8
  %37 = call ptr @MemoryContextSwitchTo(ptr noundef %36)
  %38 = load i64, ptr %6, align 8
  %39 = icmp ugt i64 %38, 0
  br i1 %39, label %40, label %44

40:                                               ; preds = %21
  %41 = load ptr, ptr %7, align 8
  %42 = load ptr, ptr getelementptr inbounds nuw (%struct.ApplySubXactData, ptr @subxact_data, i32 0, i32 3), align 8
  %43 = load i64, ptr %6, align 8
  call void @BufFileReadExact(ptr noundef %41, ptr noundef %42, i64 noundef %43)
  br label %44

44:                                               ; preds = %40, %21
  %45 = load ptr, ptr %7, align 8
  call void @BufFileClose(ptr noundef %45)
  store i32 0, ptr %9, align 4
  br label %46

46:                                               ; preds = %44, %20
  call void @llvm.lifetime.end.p0(i64 8, ptr %8) #12
  call void @llvm.lifetime.end.p0(i64 8, ptr %7) #12
  call void @llvm.lifetime.end.p0(i64 8, ptr %6) #12
  call void @llvm.lifetime.end.p0(i64 1024, ptr %5) #12
  %47 = load i32, ptr %9, align 4
  switch i32 %47, label %49 [
    i32 0, label %48
    i32 1, label %48
  ]

48:                                               ; preds = %46, %46
  ret void

49:                                               ; preds = %46
  unreachable
}