; Function Attrs: nounwind uwtable
define internal fastcc void @subxact_info_read(i32 noundef %0, i32 noundef %1) unnamed_addr #0 {
  %3 = alloca [1024 x i8], align 16
  call void @llvm.lifetime.start.p0(i64 1024, ptr nonnull %3) #17
  %4 = call i32 (ptr, i64, ptr, ...) @pg_snprintf(ptr noundef nonnull %3, i64 noundef 1024, ptr noundef nonnull @.str.69, i32 noundef %0, i32 noundef %1) #17
  %5 = load ptr, ptr @MyLogicalRepWorker, align 8
  %6 = getelementptr inbounds nuw i8, ptr %5, i64 72
  %7 = load ptr, ptr %6, align 8
  %8 = call ptr @BufFileOpenFileSet(ptr noundef %7, ptr noundef nonnull %3, i32 noundef 0, i1 noundef zeroext true) #17
  %9 = icmp eq ptr %8, null
  br i1 %9, label %23, label %10

10:                                               ; preds = %2
  call void @BufFileReadExact(ptr noundef nonnull %8, ptr noundef nonnull @subxact_data, i64 noundef 4) #17
  %11 = load i32, ptr @subxact_data, align 8
  %12 = zext i32 %11 to i64
  %13 = call i32 @my_log2(i64 noundef %12) #17
  %14 = shl nuw i32 1, %13
  store i32 %14, ptr getelementptr inbounds nuw (i8, ptr @subxact_data, i64 4), align 4
  %15 = load ptr, ptr @LogicalStreamingContext, align 8
  %16 = load ptr, ptr @CurrentMemoryContext, align 8
  store ptr %15, ptr @CurrentMemoryContext, align 8
  %17 = zext i32 %14 to i64
  %18 = shl nuw nsw i64 %17, 4
  %19 = call ptr @palloc(i64 noundef %18) #17
  store ptr %19, ptr getelementptr inbounds nuw (i8, ptr @subxact_data, i64 16), align 8
  store ptr %16, ptr @CurrentMemoryContext, align 8
  %.not = icmp eq i32 %11, 0
  br i1 %.not, label %22, label %20

20:                                               ; preds = %10
  %21 = shl nuw nsw i64 %12, 4
  call void @BufFileReadExact(ptr noundef nonnull %8, ptr noundef %19, i64 noundef %21) #17
  br label %22

22:                                               ; preds = %20, %10
  call void @BufFileClose(ptr noundef nonnull %8) #17
  br label %23

23:                                               ; preds = %2, %22
  call void @llvm.lifetime.end.p0(i64 1024, ptr nonnull %3) #17
  ret void
}